
out/FW_RP2040.elf:     file format elf32-littlearm


Disassembly of section .text:

10000000 <notmain>:
10000000:	b580      	push	{r7, lr}
10000002:	b082      	sub	sp, #8
10000004:	af00      	add	r7, sp, #0
10000006:	2300      	movs	r3, #0
10000008:	607b      	str	r3, [r7, #4]
1000000a:	f000 f825 	bl	10000058 <main>
1000000e:	0003      	movs	r3, r0
10000010:	607b      	str	r3, [r7, #4]
10000012:	687b      	ldr	r3, [r7, #4]
10000014:	0018      	movs	r0, r3
10000016:	46bd      	mov	sp, r7
10000018:	b002      	add	sp, #8
1000001a:	bd80      	pop	{r7, pc}
1000001c:	4805      	ldr	r0, [pc, #20]	; (10000034 <DELAY+0x6>)
1000001e:	4685      	mov	sp, r0
10000020:	f7ff ffee 	bl	10000000 <notmain>
10000024:	e7fe      	b.n	10000024 <notmain+0x24>

10000026 <PUT32>:
10000026:	6001      	str	r1, [r0, #0]
10000028:	4770      	bx	lr

1000002a <GET32>:
1000002a:	6800      	ldr	r0, [r0, #0]
1000002c:	4770      	bx	lr

1000002e <DELAY>:
1000002e:	3801      	subs	r0, #1
10000030:	d1fd      	bne.n	1000002e <DELAY>
10000032:	4770      	bx	lr
10000034:	20001000 	.word	0x20001000

10000038 <setupInit>:
10000038:	b580      	push	{r7, lr}
1000003a:	af00      	add	r7, sp, #0
1000003c:	46c0      	nop			; (mov r8, r8)
1000003e:	46bd      	mov	sp, r7
10000040:	bd80      	pop	{r7, pc}

10000042 <setupMainFunctions>:
10000042:	b580      	push	{r7, lr}
10000044:	af00      	add	r7, sp, #0
10000046:	46c0      	nop			; (mov r8, r8)
10000048:	46bd      	mov	sp, r7
1000004a:	bd80      	pop	{r7, pc}

1000004c <getResetReason>:
1000004c:	b580      	push	{r7, lr}
1000004e:	af00      	add	r7, sp, #0
10000050:	2300      	movs	r3, #0
10000052:	0018      	movs	r0, r3
10000054:	46bd      	mov	sp, r7
10000056:	bd80      	pop	{r7, pc}

Disassembly of section .startup_code:

10000058 <main>:
10000058:	b580      	push	{r7, lr}
1000005a:	af00      	add	r7, sp, #0
1000005c:	4b20      	ldr	r3, [pc, #128]	; (100000e0 <main+0x88>)
1000005e:	2120      	movs	r1, #32
10000060:	0018      	movs	r0, r3
10000062:	f7ff ffe0 	bl	10000026 <PUT32>
10000066:	4b1f      	ldr	r3, [pc, #124]	; (100000e4 <main+0x8c>)
10000068:	0018      	movs	r0, r3
1000006a:	f7ff ffde 	bl	1000002a <GET32>
1000006e:	0003      	movs	r3, r0
10000070:	2220      	movs	r2, #32
10000072:	4013      	ands	r3, r2
10000074:	d100      	bne.n	10000078 <main+0x20>
10000076:	e7f6      	b.n	10000066 <main+0xe>
10000078:	46c0      	nop			; (mov r8, r8)
1000007a:	2380      	movs	r3, #128	; 0x80
1000007c:	049b      	lsls	r3, r3, #18
1000007e:	4a1a      	ldr	r2, [pc, #104]	; (100000e8 <main+0x90>)
10000080:	0019      	movs	r1, r3
10000082:	0010      	movs	r0, r2
10000084:	f7ff ffcf 	bl	10000026 <PUT32>
10000088:	2380      	movs	r3, #128	; 0x80
1000008a:	049b      	lsls	r3, r3, #18
1000008c:	4a17      	ldr	r2, [pc, #92]	; (100000ec <main+0x94>)
1000008e:	0019      	movs	r1, r3
10000090:	0010      	movs	r0, r2
10000092:	f7ff ffc8 	bl	10000026 <PUT32>
10000096:	4b16      	ldr	r3, [pc, #88]	; (100000f0 <main+0x98>)
10000098:	2105      	movs	r1, #5
1000009a:	0018      	movs	r0, r3
1000009c:	f7ff ffc3 	bl	10000026 <PUT32>
100000a0:	2380      	movs	r3, #128	; 0x80
100000a2:	049b      	lsls	r3, r3, #18
100000a4:	4a13      	ldr	r2, [pc, #76]	; (100000f4 <main+0x9c>)
100000a6:	0019      	movs	r1, r3
100000a8:	0010      	movs	r0, r2
100000aa:	f7ff ffbc 	bl	10000026 <PUT32>
100000ae:	2380      	movs	r3, #128	; 0x80
100000b0:	049b      	lsls	r3, r3, #18
100000b2:	4a11      	ldr	r2, [pc, #68]	; (100000f8 <main+0xa0>)
100000b4:	0019      	movs	r1, r3
100000b6:	0010      	movs	r0, r2
100000b8:	f7ff ffb5 	bl	10000026 <PUT32>
100000bc:	2380      	movs	r3, #128	; 0x80
100000be:	035b      	lsls	r3, r3, #13
100000c0:	0018      	movs	r0, r3
100000c2:	f7ff ffb4 	bl	1000002e <DELAY>
100000c6:	2380      	movs	r3, #128	; 0x80
100000c8:	049b      	lsls	r3, r3, #18
100000ca:	4a08      	ldr	r2, [pc, #32]	; (100000ec <main+0x94>)
100000cc:	0019      	movs	r1, r3
100000ce:	0010      	movs	r0, r2
100000d0:	f7ff ffa9 	bl	10000026 <PUT32>
100000d4:	2380      	movs	r3, #128	; 0x80
100000d6:	035b      	lsls	r3, r3, #13
100000d8:	0018      	movs	r0, r3
100000da:	f7ff ffa8 	bl	1000002e <DELAY>
100000de:	e7e6      	b.n	100000ae <main+0x56>
100000e0:	4000f000 	.word	0x4000f000
100000e4:	4000c008 	.word	0x4000c008
100000e8:	d0000028 	.word	0xd0000028
100000ec:	d0000018 	.word	0xd0000018
100000f0:	400140cc 	.word	0x400140cc
100000f4:	d0000024 	.word	0xd0000024
100000f8:	d0000014 	.word	0xd0000014
